target datalayout = "e-m:e-p270:32:32-p271:32:32-p272:64:64-i64:64-i128:128-f80:128-n8:16:32:64-S128"
target triple = "x86_64-unknown-linux-gnu"

%class.hilbert_basis = type <{ ptr, %class.vector, %class.svector, %class.vector.1, %class.svector.2, %class.svector.2, %class.svector.2, %class.svector.2, %class.svector.2, ptr, ptr, %"struct.hilbert_basis::stats", [4 x i8], ptr, %class.svector.4, i32, i8, i8, i8, i8 }>
%class.vector = type { ptr }
%class.svector = type { %class.vector.0 }
%class.vector.0 = type { ptr }
%class.vector.1 = type { ptr }
%class.svector.2 = type { %class.vector.3 }
%class.vector.3 = type { ptr }
%"struct.hilbert_basis::stats" = type { i32, i32, i32 }
%class.svector.4 = type { %class.vector.5 }
%class.vector.5 = type { ptr }
%"class.hilbert_basis::passive" = type { ptr, %class.svector.2, %class.svector.4, ptr, %"struct.hilbert_basis::passive::lt", %class.heap }
%"struct.hilbert_basis::passive::lt" = type { ptr }
%class.heap = type { %"struct.hilbert_basis::passive::lt", %class.svector.9, %class.svector.9 }
%class.svector.9 = type { %class.vector.10 }
%class.vector.10 = type { ptr }

; Function Attrs: mustprogress nounwind uwtable
define linkonce_odr hidden void @_ZN13hilbert_basis7passive2ltC2EPPS0_(ptr noundef nonnull align 8 dereferenceable(8) %this, ptr noundef %p) unnamed_addr #5 comdat align 2 {
entry:
  %this.addr = alloca ptr, align 8
  %p.addr = alloca ptr, align 8
  store ptr %this, ptr %this.addr, align 8
  store ptr %p, ptr %p.addr, align 8
  %this1 = load ptr, ptr %this.addr, align 8
  %p2 = getelementptr inbounds %"struct.hilbert_basis::passive::lt", ptr %this1, i32 0, i32 0
  %0 = load ptr, ptr %p.addr, align 8
  store ptr %0, ptr %p2, align 8
  ret void
}

; Function Attrs: mustprogress nounwind uwtable
define linkonce_odr hidden void @_ZN6vectorIjLb0EjEC2Ev(ptr noundef nonnull align 8 dereferenceable(8) %this) unnamed_addr #5 comdat align 2 {
entry:
  %this.addr = alloca ptr, align 8
  store ptr %this, ptr %this.addr, align 8
  %this1 = load ptr, ptr %this.addr, align 8
  %m_data = getelementptr inbounds %class.vector.5, ptr %this1, i32 0, i32 0
  store ptr null, ptr %m_data, align 8
  ret void
}

; Function Attrs: mustprogress nounwind uwtable
define linkonce_odr hidden void @_ZN13hilbert_basis5stats5resetEv(ptr noundef nonnull align 4 dereferenceable(12) %this) #5 comdat align 2 {
entry:
  %this.addr = alloca ptr, align 8
  store ptr %this, ptr %this.addr, align 8
  %this1 = load ptr, ptr %this.addr, align 8
  call void @llvm.memset.p0.i64(ptr align 4 %this1, i8 0, i64 12, i1 false)
  ret void
}

; Function Attrs: mustprogress nounwind uwtable
define linkonce_odr hidden void @_ZN6vectorIN13hilbert_basis8offset_tELb0EjEC2Ev(ptr noundef nonnull align 8 dereferenceable(8) %this) unnamed_addr #5 comdat align 2 {
entry:
  %this.addr = alloca ptr, align 8
  store ptr %this, ptr %this.addr, align 8
  %this1 = load ptr, ptr %this.addr, align 8
  %m_data = getelementptr inbounds %class.vector.3, ptr %this1, i32 0, i32 0
  store ptr null, ptr %m_data, align 8
  ret void
}

; Function Attrs: mustprogress nounwind uwtable
define linkonce_odr hidden void @_ZN6vectorIbLb0EjEC2Ev(ptr noundef nonnull align 8 dereferenceable(8) %this) unnamed_addr #5 comdat align 2 {
entry:
  %this.addr = alloca ptr, align 8
  store ptr %this, ptr %this.addr, align 8
  %this1 = load ptr, ptr %this.addr, align 8
  %m_data = getelementptr inbounds %class.vector.0, ptr %this1, i32 0, i32 0
  store ptr null, ptr %m_data, align 8
  ret void
}

; Function Attrs: mustprogress uwtable
define linkonce_odr hidden void @_ZN13hilbert_basis7passiveC2ERS_(ptr noundef nonnull align 8 dereferenceable(64) %this, ptr noundef nonnull align 8 dereferenceable(127) %hb) unnamed_addr #4 comdat align 2 personality ptr @__gxx_personality_v0 {
entry:
  %this.addr = alloca ptr, align 8
  %hb.addr = alloca ptr, align 8
  %exn.slot = alloca ptr, align 8
  %ehselector.slot = alloca i32, align 4
  store ptr %this, ptr %this.addr, align 8
  store ptr %hb, ptr %hb.addr, align 8
  %this1 = load ptr, ptr %this.addr, align 8
  %hb2 = getelementptr inbounds %"class.hilbert_basis::passive", ptr %this1, i32 0, i32 0
  %0 = load ptr, ptr %hb.addr, align 8
  store ptr %0, ptr %hb2, align 8
  %m_passive = getelementptr inbounds %"class.hilbert_basis::passive", ptr %this1, i32 0, i32 1
  call void @_ZN7svectorIN13hilbert_basis8offset_tEjEC2Ev(ptr noundef nonnull align 8 dereferenceable(8) %m_passive)
  %m_free_list = getelementptr inbounds %"class.hilbert_basis::passive", ptr %this1, i32 0, i32 2
  invoke void @_ZN7svectorIjjEC2Ev(ptr noundef nonnull align 8 dereferenceable(8) %m_free_list)
          to label %invoke.cont unwind label %lpad

invoke.cont:                                      ; preds = %entry
  %m_lt = getelementptr inbounds %"class.hilbert_basis::passive", ptr %this1, i32 0, i32 4
  %m_this = getelementptr inbounds %"class.hilbert_basis::passive", ptr %this1, i32 0, i32 3
  invoke void @_ZN13hilbert_basis7passive2ltC2EPPS0_(ptr noundef nonnull align 8 dereferenceable(8) %m_lt, ptr noundef %m_this)
          to label %invoke.cont4 unwind label %lpad3

invoke.cont4:                                     ; preds = %invoke.cont
  %m_heap = getelementptr inbounds %"class.hilbert_basis::passive", ptr %this1, i32 0, i32 5
  %m_lt5 = getelementptr inbounds %"class.hilbert_basis::passive", ptr %this1, i32 0, i32 4
  invoke void @_ZN4heapIN13hilbert_basis7passive2ltEEC2EiRKS2_(ptr noundef nonnull align 8 dereferenceable(24) %m_heap, i32 noundef 10, ptr noundef nonnull align 8 dereferenceable(8) %m_lt5)
          to label %invoke.cont6 unwind label %lpad3

invoke.cont6:                                     ; preds = %invoke.cont4
  %m_this7 = getelementptr inbounds %"class.hilbert_basis::passive", ptr %this1, i32 0, i32 3
  store ptr %this1, ptr %m_this7, align 8
  ret void

lpad:                                             ; preds = %entry
  %1 = landingpad { ptr, i32 }
          cleanup
  %2 = extractvalue { ptr, i32 } %1, 0
  store ptr %2, ptr %exn.slot, align 8
  %3 = extractvalue { ptr, i32 } %1, 1
  store i32 %3, ptr %ehselector.slot, align 4
  br label %ehcleanup

lpad3:                                            ; preds = %invoke.cont4, %invoke.cont
  %4 = landingpad { ptr, i32 }
          cleanup
  %5 = extractvalue { ptr, i32 } %4, 0
  store ptr %5, ptr %exn.slot, align 8
  %6 = extractvalue { ptr, i32 } %4, 1
  store i32 %6, ptr %ehselector.slot, align 4
  call void @_ZN7svectorIjjED2Ev(ptr noundef nonnull align 8 dereferenceable(8) %m_free_list) #3
  br label %ehcleanup

ehcleanup:                                        ; preds = %lpad3, %lpad
  call void @_ZN7svectorIN13hilbert_basis8offset_tEjED2Ev(ptr noundef nonnull align 8 dereferenceable(8) %m_passive) #3
  br label %eh.resume

eh.resume:                                        ; preds = %ehcleanup
  %exn = load ptr, ptr %exn.slot, align 8
  %sel = load i32, ptr %ehselector.slot, align 4
  %lpad.val = insertvalue { ptr, i32 } poison, ptr %exn, 0
  %lpad.val8 = insertvalue { ptr, i32 } %lpad.val, i32 %sel, 1
  resume { ptr, i32 } %lpad.val8
}

; Function Attrs: mustprogress nounwind uwtable
define linkonce_odr hidden void @_ZN7svectorIjjEC2Ev(ptr noundef nonnull align 8 dereferenceable(8) %this) unnamed_addr #5 comdat align 2 {
entry:
  %this.addr = alloca ptr, align 8
  store ptr %this, ptr %this.addr, align 8
  %this1 = load ptr, ptr %this.addr, align 8
  %0 = getelementptr inbounds i8, ptr %this1, i64 0
  call void @llvm.memset.p0.i64(ptr align 8 %0, i8 0, i64 8, i1 false)
  call void @_ZN6vectorIjLb0EjEC2Ev(ptr noundef nonnull align 8 dereferenceable(8) %this1) #3
  ret void
}

; Function Attrs: mustprogress uwtable
define linkonce_odr hidden void @_ZN13hilbert_basis5statsC2Ev(ptr noundef nonnull align 4 dereferenceable(12) %this) unnamed_addr #4 comdat align 2 {
entry:
  %this.addr = alloca ptr, align 8
  store ptr %this, ptr %this.addr, align 8
  %this1 = load ptr, ptr %this.addr, align 8
  call void @_ZN13hilbert_basis5stats5resetEv(ptr noundef nonnull align 4 dereferenceable(12) %this1)
  ret void
}

; Function Attrs: mustprogress nounwind uwtable
define linkonce_odr hidden void @_ZN7svectorIN13hilbert_basis8offset_tEjEC2Ev(ptr noundef nonnull align 8 dereferenceable(8) %this) unnamed_addr #5 comdat align 2 {
entry:
  %this.addr = alloca ptr, align 8
  store ptr %this, ptr %this.addr, align 8
  %this1 = load ptr, ptr %this.addr, align 8
  %0 = getelementptr inbounds i8, ptr %this1, i64 0
  call void @llvm.memset.p0.i64(ptr align 8 %0, i8 0, i64 8, i1 false)
  call void @_ZN6vectorIN13hilbert_basis8offset_tELb0EjEC2Ev(ptr noundef nonnull align 8 dereferenceable(8) %this1) #3
  ret void
}

; Function Attrs: mustprogress nounwind uwtable
define linkonce_odr hidden void @_ZN6vectorI13checked_int64ILb1EELb1EjEC2Ev(ptr noundef nonnull align 8 dereferenceable(8) %this) unnamed_addr #5 comdat align 2 {
entry:
  %this.addr = alloca ptr, align 8
  store ptr %this, ptr %this.addr, align 8
  %this1 = load ptr, ptr %this.addr, align 8
  %m_data = getelementptr inbounds %class.vector.1, ptr %this1, i32 0, i32 0
  store ptr null, ptr %m_data, align 8
  ret void
}

; Function Attrs: mustprogress nounwind uwtable
define linkonce_odr hidden void @_ZN7svectorIbjEC2Ev(ptr noundef nonnull align 8 dereferenceable(8) %this) unnamed_addr #5 comdat align 2 {
entry:
  %this.addr = alloca ptr, align 8
  store ptr %this, ptr %this.addr, align 8
  %this1 = load ptr, ptr %this.addr, align 8
  %0 = getelementptr inbounds i8, ptr %this1, i64 0
  call void @llvm.memset.p0.i64(ptr align 8 %0, i8 0, i64 8, i1 false)
  call void @_ZN6vectorIbLb0EjEC2Ev(ptr noundef nonnull align 8 dereferenceable(8) %this1) #3
  ret void
}

; Function Attrs: mustprogress nounwind uwtable
define linkonce_odr hidden void @_ZN6vectorIS_I13checked_int64ILb1EELb1EjELb1EjEC2Ev(ptr noundef nonnull align 8 dereferenceable(8) %this) unnamed_addr #5 comdat align 2 {
entry:
  %this.addr = alloca ptr, align 8
  store ptr %this, ptr %this.addr, align 8
  %this1 = load ptr, ptr %this.addr, align 8
  %m_data = getelementptr inbounds %class.vector, ptr %this1, i32 0, i32 0
  store ptr null, ptr %m_data, align 8
  ret void
}

; Function Attrs: mustprogress uwtable
define hidden void @_ZN13hilbert_basisC2ER8reslimit(ptr noundef nonnull align 8 dereferenceable(127) %this, ptr noundef nonnull align 8 dereferenceable(40) %lim) unnamed_addr #4 align 2 personality ptr @__gxx_personality_v0 {
entry:
  %this.addr = alloca ptr, align 8
  %lim.addr = alloca ptr, align 8
  %exn.slot = alloca ptr, align 8
  %ehselector.slot = alloca i32, align 4
  store ptr %this, ptr %this.addr, align 8
  store ptr %lim, ptr %lim.addr, align 8
  %this1 = load ptr, ptr %this.addr, align 8
  %m_limit = getelementptr inbounds %class.hilbert_basis, ptr %this1, i32 0, i32 0
  %0 = load ptr, ptr %lim.addr, align 8
  store ptr %0, ptr %m_limit, align 8
  %m_ineqs = getelementptr inbounds %class.hilbert_basis, ptr %this1, i32 0, i32 1
  call void @_ZN6vectorIS_I13checked_int64ILb1EELb1EjELb1EjEC2Ev(ptr noundef nonnull align 8 dereferenceable(8) %m_ineqs) #3
  %m_iseq = getelementptr inbounds %class.hilbert_basis, ptr %this1, i32 0, i32 2
  invoke void @_ZN7svectorIbjEC2Ev(ptr noundef nonnull align 8 dereferenceable(8) %m_iseq)
          to label %invoke.cont unwind label %lpad

invoke.cont:                                      ; preds = %entry
  %m_store = getelementptr inbounds %class.hilbert_basis, ptr %this1, i32 0, i32 3
  call void @_ZN6vectorI13checked_int64ILb1EELb1EjEC2Ev(ptr noundef nonnull align 8 dereferenceable(8) %m_store) #3
  %m_basis = getelementptr inbounds %class.hilbert_basis, ptr %this1, i32 0, i32 4
  invoke void @_ZN7svectorIN13hilbert_basis8offset_tEjEC2Ev(ptr noundef nonnull align 8 dereferenceable(8) %m_basis)
          to label %invoke.cont3 unwind label %lpad2

invoke.cont3:                                     ; preds = %invoke.cont
  %m_free_list = getelementptr inbounds %class.hilbert_basis, ptr %this1, i32 0, i32 5
  invoke void @_ZN7svectorIN13hilbert_basis8offset_tEjEC2Ev(ptr noundef nonnull align 8 dereferenceable(8) %m_free_list)
          to label %invoke.cont5 unwind label %lpad4

invoke.cont5:                                     ; preds = %invoke.cont3
  %m_active = getelementptr inbounds %class.hilbert_basis, ptr %this1, i32 0, i32 6
  invoke void @_ZN7svectorIN13hilbert_basis8offset_tEjEC2Ev(ptr noundef nonnull align 8 dereferenceable(8) %m_active)
          to label %invoke.cont7 unwind label %lpad6

invoke.cont7:                                     ; preds = %invoke.cont5
  %m_sos = getelementptr inbounds %class.hilbert_basis, ptr %this1, i32 0, i32 7
  invoke void @_ZN7svectorIN13hilbert_basis8offset_tEjEC2Ev(ptr noundef nonnull align 8 dereferenceable(8) %m_sos)
          to label %invoke.cont9 unwind label %lpad8

invoke.cont9:                                     ; preds = %invoke.cont7
  %m_zero = getelementptr inbounds %class.hilbert_basis, ptr %this1, i32 0, i32 8
  invoke void @_ZN7svectorIN13hilbert_basis8offset_tEjEC2Ev(ptr noundef nonnull align 8 dereferenceable(8) %m_zero)
          to label %invoke.cont11 unwind label %lpad10

invoke.cont11:                                    ; preds = %invoke.cont9
  %m_stats = getelementptr inbounds %class.hilbert_basis, ptr %this1, i32 0, i32 11
  invoke void @_ZN13hilbert_basis5statsC2Ev(ptr noundef nonnull align 4 dereferenceable(12) %m_stats)
          to label %invoke.cont13 unwind label %lpad12

invoke.cont13:                                    ; preds = %invoke.cont11
  %m_ints = getelementptr inbounds %class.hilbert_basis, ptr %this1, i32 0, i32 14
  invoke void @_ZN7svectorIjjEC2Ev(ptr noundef nonnull align 8 dereferenceable(8) %m_ints)
          to label %invoke.cont14 unwind label %lpad12

invoke.cont14:                                    ; preds = %invoke.cont13
  %m_use_support = getelementptr inbounds %class.hilbert_basis, ptr %this1, i32 0, i32 16
  store i8 1, ptr %m_use_support, align 4
  %m_use_ordered_support = getelementptr inbounds %class.hilbert_basis, ptr %this1, i32 0, i32 17
  store i8 1, ptr %m_use_ordered_support, align 1
  %m_use_ordered_subsumption = getelementptr inbounds %class.hilbert_basis, ptr %this1, i32 0, i32 18
  store i8 1, ptr %m_use_ordered_subsumption, align 2
  %call = invoke noalias noundef ptr @_ZN6memory8allocateEm(i64 noundef 1344)
          to label %invoke.cont16 unwind label %lpad15

invoke.cont16:                                    ; preds = %invoke.cont14
  invoke void @_ZN13hilbert_basis5indexC2ERS_(ptr noundef nonnull align 8 dereferenceable(1340) %call, ptr noundef nonnull align 8 dereferenceable(127) %this1)
          to label %invoke.cont17 unwind label %lpad15

invoke.cont17:                                    ; preds = %invoke.cont16
  %m_index = getelementptr inbounds %class.hilbert_basis, ptr %this1, i32 0, i32 13
  store ptr %call, ptr %m_index, align 8
  %call19 = invoke noalias noundef ptr @_ZN6memory8allocateEm(i64 noundef 64)
          to label %invoke.cont18 unwind label %lpad15

invoke.cont18:                                    ; preds = %invoke.cont17
  invoke void @_ZN13hilbert_basis7passiveC2ERS_(ptr noundef nonnull align 8 dereferenceable(64) %call19, ptr noundef nonnull align 8 dereferenceable(127) %this1)
          to label %invoke.cont20 unwind label %lpad15

invoke.cont20:                                    ; preds = %invoke.cont18
  %m_passive = getelementptr inbounds %class.hilbert_basis, ptr %this1, i32 0, i32 9
  store ptr %call19, ptr %m_passive, align 8
  %call22 = invoke noalias noundef ptr @_ZN6memory8allocateEm(i64 noundef 120)
          to label %invoke.cont21 unwind label %lpad15

invoke.cont21:                                    ; preds = %invoke.cont20
  invoke void @_ZN13hilbert_basis8passive2C2ERS_(ptr noundef nonnull align 8 dereferenceable(120) %call22, ptr noundef nonnull align 8 dereferenceable(127) %this1)
          to label %invoke.cont23 unwind label %lpad15

invoke.cont23:                                    ; preds = %invoke.cont21
  %m_passive2 = getelementptr inbounds %class.hilbert_basis, ptr %this1, i32 0, i32 10
  store ptr %call22, ptr %m_passive2, align 8
  ret void

lpad:                                             ; preds = %entry
  %1 = landingpad { ptr, i32 }
          cleanup
  %2 = extractvalue { ptr, i32 } %1, 0
  store ptr %2, ptr %exn.slot, align 8
  %3 = extractvalue { ptr, i32 } %1, 1
  store i32 %3, ptr %ehselector.slot, align 4
  br label %ehcleanup30

lpad2:                                            ; preds = %invoke.cont
  %4 = landingpad { ptr, i32 }
          cleanup
  %5 = extractvalue { ptr, i32 } %4, 0
  store ptr %5, ptr %exn.slot, align 8
  %6 = extractvalue { ptr, i32 } %4, 1
  store i32 %6, ptr %ehselector.slot, align 4
  br label %ehcleanup28

lpad4:                                            ; preds = %invoke.cont3
  %7 = landingpad { ptr, i32 }
          cleanup
  %8 = extractvalue { ptr, i32 } %7, 0
  store ptr %8, ptr %exn.slot, align 8
  %9 = extractvalue { ptr, i32 } %7, 1
  store i32 %9, ptr %ehselector.slot, align 4
  br label %ehcleanup27

lpad6:                                            ; preds = %invoke.cont5
  %10 = landingpad { ptr, i32 }
          cleanup
  %11 = extractvalue { ptr, i32 } %10, 0
  store ptr %11, ptr %exn.slot, align 8
  %12 = extractvalue { ptr, i32 } %10, 1
  store i32 %12, ptr %ehselector.slot, align 4
  br label %ehcleanup26

lpad8:                                            ; preds = %invoke.cont7
  %13 = landingpad { ptr, i32 }
          cleanup
  %14 = extractvalue { ptr, i32 } %13, 0
  store ptr %14, ptr %exn.slot, align 8
  %15 = extractvalue { ptr, i32 } %13, 1
  store i32 %15, ptr %ehselector.slot, align 4
  br label %ehcleanup25

lpad10:                                           ; preds = %invoke.cont9
  %16 = landingpad { ptr, i32 }
          cleanup
  %17 = extractvalue { ptr, i32 } %16, 0
  store ptr %17, ptr %exn.slot, align 8
  %18 = extractvalue { ptr, i32 } %16, 1
  store i32 %18, ptr %ehselector.slot, align 4
  br label %ehcleanup24

lpad12:                                           ; preds = %invoke.cont13, %invoke.cont11
  %19 = landingpad { ptr, i32 }
          cleanup
  %20 = extractvalue { ptr, i32 } %19, 0
  store ptr %20, ptr %exn.slot, align 8
  %21 = extractvalue { ptr, i32 } %19, 1
  store i32 %21, ptr %ehselector.slot, align 4
  br label %ehcleanup

lpad15:                                           ; preds = %invoke.cont21, %invoke.cont20, %invoke.cont18, %invoke.cont17, %invoke.cont16, %invoke.cont14
  %22 = landingpad { ptr, i32 }
          cleanup
  %23 = extractvalue { ptr, i32 } %22, 0
  store ptr %23, ptr %exn.slot, align 8
  %24 = extractvalue { ptr, i32 } %22, 1
  store i32 %24, ptr %ehselector.slot, align 4
  call void @_ZN7svectorIjjED2Ev(ptr noundef nonnull align 8 dereferenceable(8) %m_ints) #3
  br label %ehcleanup

ehcleanup:                                        ; preds = %lpad15, %lpad12
  call void @_ZN7svectorIN13hilbert_basis8offset_tEjED2Ev(ptr noundef nonnull align 8 dereferenceable(8) %m_zero) #3
  br label %ehcleanup24

ehcleanup24:                                      ; preds = %ehcleanup, %lpad10
  call void @_ZN7svectorIN13hilbert_basis8offset_tEjED2Ev(ptr noundef nonnull align 8 dereferenceable(8) %m_sos) #3
  br label %ehcleanup25

ehcleanup25:                                      ; preds = %ehcleanup24, %lpad8
  call void @_ZN7svectorIN13hilbert_basis8offset_tEjED2Ev(ptr noundef nonnull align 8 dereferenceable(8) %m_active) #3
  br label %ehcleanup26

ehcleanup26:                                      ; preds = %ehcleanup25, %lpad6
  call void @_ZN7svectorIN13hilbert_basis8offset_tEjED2Ev(ptr noundef nonnull align 8 dereferenceable(8) %m_free_list) #3
  br label %ehcleanup27

ehcleanup27:                                      ; preds = %ehcleanup26, %lpad4
  call void @_ZN7svectorIN13hilbert_basis8offset_tEjED2Ev(ptr noundef nonnull align 8 dereferenceable(8) %m_basis) #3
  br label %ehcleanup28

ehcleanup28:                                      ; preds = %ehcleanup27, %lpad2
  call void @_ZN6vectorI13checked_int64ILb1EELb1EjED2Ev(ptr noundef nonnull align 8 dereferenceable(8) %m_store) #3
  call void @_ZN7svectorIbjED2Ev(ptr noundef nonnull align 8 dereferenceable(8) %m_iseq) #3
  br label %ehcleanup30

ehcleanup30:                                      ; preds = %ehcleanup28, %lpad
  call void @_ZN6vectorIS_I13checked_int64ILb1EELb1EjELb1EjED2Ev(ptr noundef nonnull align 8 dereferenceable(8) %m_ineqs) #3
  br label %eh.resume

eh.resume:                                        ; preds = %ehcleanup30
  %exn = load ptr, ptr %exn.slot, align 8
  %sel = load i32, ptr %ehselector.slot, align 4
  %lpad.val = insertvalue { ptr, i32 } poison, ptr %exn, 0
  %lpad.val31 = insertvalue { ptr, i32 } %lpad.val, i32 %sel, 1
  resume { ptr, i32 } %lpad.val31
}