; Function Attrs: mustprogress uwtable
define hidden void @_ZN13hilbert_basisC2ER8reslimit(ptr noundef nonnull align 8 dereferenceable(127) %this, ptr noundef nonnull align 8 dereferenceable(40) %lim) unnamed_addr #3 align 2 personality ptr @__gxx_personality_v0 {
invoke.cont13:
  store ptr %lim, ptr %this, align 8
  %m_ineqs = getelementptr inbounds i8, ptr %this, i64 8
  %m_stats = getelementptr inbounds i8, ptr %this, i64 88
  tail call void @llvm.memset.p0.i64(ptr noundef nonnull align 8 dereferenceable(12) %m_stats, i8 0, i64 12, i1 false)
  %m_ints = getelementptr inbounds i8, ptr %this, i64 112
  store ptr null, ptr %m_ints, align 8
  %m_use_support = getelementptr inbounds i8, ptr %this, i64 124
  tail call void @llvm.memset.p0.i64(ptr noundef nonnull align 8 dereferenceable(64) %m_ineqs, i8 0, i64 64, i1 false)
  store i8 1, ptr %m_use_support, align 4
  %m_use_ordered_support = getelementptr inbounds i8, ptr %this, i64 125
  store i8 1, ptr %m_use_ordered_support, align 1
  %m_use_ordered_subsumption = getelementptr inbounds i8, ptr %this, i64 126
  store i8 1, ptr %m_use_ordered_subsumption, align 2
  %call = invoke noalias noundef ptr @_ZN6memory8allocateEm(i64 noundef 1344)
          to label %invoke.cont16 unwind label %lpad15

invoke.cont16:                                    ; preds = %invoke.cont13
  invoke void @_ZN13hilbert_basis5indexC2ERS_(ptr noundef nonnull align 8 dereferenceable(1340) %call, ptr noundef nonnull align 8 dereferenceable(127) %this)
          to label %invoke.cont17 unwind label %lpad15

invoke.cont17:                                    ; preds = %invoke.cont16
  %m_index = getelementptr inbounds i8, ptr %this, i64 104
  store ptr %call, ptr %m_index, align 8
  %call19 = invoke noalias noundef ptr @_ZN6memory8allocateEm(i64 noundef 64)
          to label %invoke.cont18 unwind label %lpad15

invoke.cont18:                                    ; preds = %invoke.cont17
  store ptr %this, ptr %call19, align 8
  %m_passive.i = getelementptr inbounds i8, ptr %call19, i64 8
  %m_lt.i = getelementptr inbounds i8, ptr %call19, i64 32
  %m_this.i = getelementptr inbounds i8, ptr %call19, i64 24
  tail call void @llvm.memset.p0.i64(ptr noundef nonnull align 8 dereferenceable(16) %m_passive.i, i8 0, i64 16, i1 false)
  store ptr %m_this.i, ptr %m_lt.i, align 8
  %m_heap.i = getelementptr inbounds i8, ptr %call19, i64 40
  invoke void @_ZN4heapIN13hilbert_basis7passive2ltEEC2EiRKS2_(ptr noundef nonnull align 8 dereferenceable(24) %m_heap.i, i32 noundef 10, ptr noundef nonnull align 8 dereferenceable(8) %m_lt.i)
          to label %invoke.cont20 unwind label %lpad3.i

lpad3.i:                                          ; preds = %invoke.cont18
  %0 = landingpad { ptr, i32 }
          cleanup
  %m_free_list.i = getelementptr inbounds i8, ptr %call19, i64 16
  tail call void @_ZN7svectorIjjED2Ev(ptr noundef nonnull align 8 dereferenceable(8) %m_free_list.i) #22
  tail call void @_ZN7svectorIN13hilbert_basis8offset_tEjED2Ev(ptr noundef nonnull align 8 dereferenceable(8) %m_passive.i) #22
  br label %lpad15.body

invoke.cont20:                                    ; preds = %invoke.cont18
  store ptr %call19, ptr %m_this.i, align 8
  %m_passive = getelementptr inbounds i8, ptr %this, i64 72
  store ptr %call19, ptr %m_passive, align 8
  %call22 = invoke noalias noundef ptr @_ZN6memory8allocateEm(i64 noundef 120)
          to label %invoke.cont21 unwind label %lpad15

invoke.cont21:                                    ; preds = %invoke.cont20
  invoke void @_ZN13hilbert_basis8passive2C2ERS_(ptr noundef nonnull align 8 dereferenceable(120) %call22, ptr noundef nonnull align 8 dereferenceable(127) %this)
          to label %invoke.cont23 unwind label %lpad15

invoke.cont23:                                    ; preds = %invoke.cont21
  %m_passive2 = getelementptr inbounds i8, ptr %this, i64 80
  store ptr %call22, ptr %m_passive2, align 8
  ret void

lpad15:                                           ; preds = %invoke.cont21, %invoke.cont20, %invoke.cont17, %invoke.cont16, %invoke.cont13
  %1 = landingpad { ptr, i32 }
          cleanup
  br label %lpad15.body

lpad15.body:                                      ; preds = %lpad3.i, %lpad15
  %eh.lpad-body = phi { ptr, i32 } [ %1, %lpad15 ], [ %0, %lpad3.i ]
  %m_zero = getelementptr inbounds i8, ptr %this, i64 64
  %m_sos = getelementptr inbounds i8, ptr %this, i64 56
  %m_active = getelementptr inbounds i8, ptr %this, i64 48
  %m_free_list = getelementptr inbounds i8, ptr %this, i64 40
  %m_basis = getelementptr inbounds i8, ptr %this, i64 32
  %m_store = getelementptr inbounds i8, ptr %this, i64 24
  %m_iseq = getelementptr inbounds i8, ptr %this, i64 16
  tail call void @_ZN7svectorIjjED2Ev(ptr noundef nonnull align 8 dereferenceable(8) %m_ints) #22
  tail call void @_ZN7svectorIN13hilbert_basis8offset_tEjED2Ev(ptr noundef nonnull align 8 dereferenceable(8) %m_zero) #22
  tail call void @_ZN7svectorIN13hilbert_basis8offset_tEjED2Ev(ptr noundef nonnull align 8 dereferenceable(8) %m_sos) #22
  tail call void @_ZN7svectorIN13hilbert_basis8offset_tEjED2Ev(ptr noundef nonnull align 8 dereferenceable(8) %m_active) #22
  tail call void @_ZN7svectorIN13hilbert_basis8offset_tEjED2Ev(ptr noundef nonnull align 8 dereferenceable(8) %m_free_list) #22
  tail call void @_ZN7svectorIN13hilbert_basis8offset_tEjED2Ev(ptr noundef nonnull align 8 dereferenceable(8) %m_basis) #22
  tail call void @_ZN6vectorI13checked_int64ILb1EELb1EjED2Ev(ptr noundef nonnull align 8 dereferenceable(8) %m_store) #22
  tail call void @_ZN7svectorIbjED2Ev(ptr noundef nonnull align 8 dereferenceable(8) %m_iseq) #22
  tail call void @_ZN6vectorIS_I13checked_int64ILb1EELb1EjELb1EjED2Ev(ptr noundef nonnull align 8 dereferenceable(8) %m_ineqs) #22
  resume { ptr, i32 } %eh.lpad-body
}